; Function Attrs: nounwind uwtable
define hidden void @luaH_set(ptr noundef %0, ptr noundef %1, ptr noundef readonly captures(none) %2, ptr noundef readonly captures(none) %3) local_unnamed_addr #0 {
  %5 = tail call i32 @luaH_pset(ptr noundef %1, ptr noundef %2, ptr noundef %3)
  %.not = icmp eq i32 %5, 0
  br i1 %.not, label %7, label %6

6:                                                ; preds = %4
  tail call void @luaH_finishset(ptr noundef %0, ptr noundef %1, ptr noundef %2, ptr noundef %3, i32 noundef %5)
  br label %7

7:                                                ; preds = %6, %4
  ret void
}